target datalayout = "e-m:e-p270:32:32-p271:32:32-p272:64:64-i64:64-i128:128-f80:128-n8:16:32:64-S128"
target triple = "x86_64-pc-linux-gnu"

%struct.opj_jp2 = type { ptr, ptr, ptr, i32, i32, i32, i32, i32, i32, i32, i32, i32, i32, i32, i32, i32, i32, ptr, ptr, i64, i64, i32, i32, i32, %struct.opj_jp2_color, i32, i8, i8 }
%struct.opj_jp2_color = type { ptr, i32, ptr, ptr, i8 }

@.str.40 = private unnamed_addr constant [54 x i8] c"The signature box must be the first box in the file.\0A\00", align 1
@.str.41 = private unnamed_addr constant [34 x i8] c"Error with JP signature Box size\0A\00", align 1
@.str.42 = private unnamed_addr constant [44 x i8] c"Error with JP Signature : bad magic number\0A\00", align 1

; Function Attrs: nounwind uwtable
define internal i32 @opj_jp2_read_jp(ptr noundef %0, ptr noundef %1, i32 noundef %2, ptr noundef %3) #0 {
  %5 = alloca i32, align 4
  %6 = alloca ptr, align 8
  %7 = alloca ptr, align 8
  %8 = alloca i32, align 4
  %9 = alloca ptr, align 8
  %10 = alloca i32, align 4
  %11 = alloca i32, align 4
  store ptr %0, ptr %6, align 8, !tbaa !3
  store ptr %1, ptr %7, align 8, !tbaa !106
  store i32 %2, ptr %8, align 4, !tbaa !39
  store ptr %3, ptr %9, align 8, !tbaa !12
  call void @llvm.lifetime.start.p0(i64 4, ptr %10) #5
  %12 = load ptr, ptr %6, align 8, !tbaa !3
  %13 = getelementptr inbounds nuw %struct.opj_jp2, ptr %12, i32 0, i32 22
  %14 = load i32, ptr %13, align 4, !tbaa !153
  %15 = icmp ne i32 %14, 0
  br i1 %15, label %16, label %19

16:                                               ; preds = %4
  %17 = load ptr, ptr %9, align 8, !tbaa !12
  %18 = call i32 (ptr, i32, ptr, ...) @opj_event_msg(ptr noundef %17, i32 noundef 1, ptr noundef @.str.40)
  store i32 0, ptr %5, align 4
  store i32 1, ptr %11, align 4
  br label %37

19:                                               ; preds = %4
  %20 = load i32, ptr %8, align 4, !tbaa !39
  %21 = icmp ne i32 %20, 4
  br i1 %21, label %22, label %25

22:                                               ; preds = %19
  %23 = load ptr, ptr %9, align 8, !tbaa !12
  %24 = call i32 (ptr, i32, ptr, ...) @opj_event_msg(ptr noundef %23, i32 noundef 1, ptr noundef @.str.41)
  store i32 0, ptr %5, align 4
  store i32 1, ptr %11, align 4
  br label %37

25:                                               ; preds = %19
  %26 = load ptr, ptr %7, align 8, !tbaa !106
  call void @opj_read_bytes_LE(ptr noundef %26, ptr noundef %10, i32 noundef 4)
  %27 = load i32, ptr %10, align 4, !tbaa !39
  %28 = icmp ne i32 %27, 218793738
  br i1 %28, label %29, label %32

29:                                               ; preds = %25
  %30 = load ptr, ptr %9, align 8, !tbaa !12
  %31 = call i32 (ptr, i32, ptr, ...) @opj_event_msg(ptr noundef %30, i32 noundef 1, ptr noundef @.str.42)
  store i32 0, ptr %5, align 4
  store i32 1, ptr %11, align 4
  br label %37

32:                                               ; preds = %25
  %33 = load ptr, ptr %6, align 8, !tbaa !3
  %34 = getelementptr inbounds nuw %struct.opj_jp2, ptr %33, i32 0, i32 22
  %35 = load i32, ptr %34, align 4, !tbaa !153
  %36 = or i32 %35, 1
  store i32 %36, ptr %34, align 4, !tbaa !153
  store i32 1, ptr %5, align 4
  store i32 1, ptr %11, align 4
  br label %37

37:                                               ; preds = %32, %29, %22, %16
  call void @llvm.lifetime.end.p0(i64 4, ptr %10) #5
  %38 = load i32, ptr %5, align 4
  ret i32 %38
}