; Function Attrs: nounwind uwtable
define internal range(i32 0, 2) i32 @opj_jp2_read_jp(ptr noundef captures(none) %0, ptr noundef %1, i32 noundef %2, ptr noundef %3) #0 {
  %5 = alloca i32, align 4
  call void @llvm.lifetime.start.p0(i64 4, ptr nonnull %5) #6
  %6 = getelementptr inbounds nuw i8, ptr %0, i64 116
  %7 = load i32, ptr %6, align 4, !tbaa !125
  %.not = icmp eq i32 %7, 0
  br i1 %.not, label %10, label %8

8:                                                ; preds = %4
  %9 = tail call i32 (ptr, i32, ptr, ...) @opj_event_msg(ptr noundef %3, i32 noundef 1, ptr noundef nonnull @.str.40) #6
  br label %20

10:                                               ; preds = %4
  %.not7 = icmp eq i32 %2, 4
  br i1 %.not7, label %13, label %11

11:                                               ; preds = %10
  %12 = tail call i32 (ptr, i32, ptr, ...) @opj_event_msg(ptr noundef %3, i32 noundef 1, ptr noundef nonnull @.str.41) #6
  br label %20

13:                                               ; preds = %10
  call void @opj_read_bytes_LE(ptr noundef %1, ptr noundef nonnull %5, i32 noundef 4) #6
  %14 = load i32, ptr %5, align 4, !tbaa !46
  %.not8 = icmp eq i32 %14, 218793738
  br i1 %.not8, label %17, label %15

15:                                               ; preds = %13
  %16 = call i32 (ptr, i32, ptr, ...) @opj_event_msg(ptr noundef %3, i32 noundef 1, ptr noundef nonnull @.str.42) #6
  br label %20

17:                                               ; preds = %13
  %18 = load i32, ptr %6, align 4, !tbaa !125
  %19 = or i32 %18, 1
  store i32 %19, ptr %6, align 4, !tbaa !125
  br label %20

20:                                               ; preds = %17, %15, %11, %8
  %.0 = phi i32 [ 0, %8 ], [ 0, %11 ], [ 0, %15 ], [ 1, %17 ]
  call void @llvm.lifetime.end.p0(i64 4, ptr nonnull %5) #6
  ret i32 %.0
}